target datalayout = "e-m:e-p270:32:32-p271:32:32-p272:64:64-i64:64-i128:128-f80:128-n8:16:32:64-S128"
target triple = "x86_64-unknown-linux-gnu"

%"class.icu_75::UObject" = type { ptr }
%"class.icu_75::UnicodeSet" = type <{ %"class.icu_75::UnicodeFilter", ptr, i32, i32, i8, [7 x i8], ptr, ptr, i32, [4 x i8], ptr, i32, [4 x i8], ptr, ptr, [25 x i32], [4 x i8] }>
%"class.icu_75::UnicodeFilter" = type { %"class.icu_75::UnicodeFunctor", %"class.icu_75::UnicodeMatcher" }
%"class.icu_75::UnicodeFunctor" = type { %"class.icu_75::UObject" }
%"class.icu_75::UnicodeMatcher" = type { ptr }

; Function Attrs: mustprogress nounwind uwtable
define internal noundef signext i8 @_ZL9U_SUCCESS10UErrorCode(i32 noundef %code) #0 {
entry:
  %code.addr = alloca i32, align 4
  store i32 %code, ptr %code.addr, align 4
  %0 = load i32, ptr %code.addr, align 4
  %cmp = icmp sle i32 %0, 0
  %conv = zext i1 %cmp to i8
  ret i8 %conv
}

; Function Attrs: mustprogress nounwind uwtable
define linkonce_odr noundef signext i8 @_ZNK6icu_7510UnicodeSet7isBogusEv(ptr noundef nonnull align 8 dereferenceable(200) %this) #0 comdat align 2 {
entry:
  %this.addr = alloca ptr, align 8
  store ptr %this, ptr %this.addr, align 8
  %this1 = load ptr, ptr %this.addr, align 8
  %fFlags = getelementptr inbounds %"class.icu_75::UnicodeSet", ptr %this1, i32 0, i32 4
  %0 = load i8, ptr %fFlags, align 8
  %conv = zext i8 %0 to i32
  %and = and i32 %conv, 1
  %conv2 = trunc i32 %and to i8
  ret i8 %conv2
}

; Function Attrs: mustprogress nounwind uwtable
define internal noundef signext i8 @_ZL9U_FAILURE10UErrorCode(i32 noundef %code) #0 {
entry:
  %code.addr = alloca i32, align 4
  store i32 %code, ptr %code.addr, align 4
  %0 = load i32, ptr %code.addr, align 4
  %cmp = icmp sgt i32 %0, 0
  %conv = zext i1 %cmp to i8
  ret i8 %conv
}

; Function Attrs: mustprogress uwtable
define void @_ZN6icu_7510UnicodeSet11applyFilterEPFaiPvES1_PKS0_R10UErrorCode(ptr noundef nonnull align 8 dereferenceable(200) %this, ptr noundef %filter, ptr noundef %context, ptr noundef %inclusions, ptr noundef nonnull align 4 dereferenceable(4) %status) #1 align 2 {
entry:
  %this.addr = alloca ptr, align 8
  %filter.addr = alloca ptr, align 8
  %context.addr = alloca ptr, align 8
  %inclusions.addr = alloca ptr, align 8
  %status.addr = alloca ptr, align 8
  %startHasProperty = alloca i32, align 4
  %limitRange = alloca i32, align 4
  %j = alloca i32, align 4
  %start = alloca i32, align 4
  %end = alloca i32, align 4
  %ch = alloca i32, align 4
  store ptr %this, ptr %this.addr, align 8
  store ptr %filter, ptr %filter.addr, align 8
  store ptr %context, ptr %context.addr, align 8
  store ptr %inclusions, ptr %inclusions.addr, align 8
  store ptr %status, ptr %status.addr, align 8
  %this1 = load ptr, ptr %this.addr, align 8
  %0 = load ptr, ptr %status.addr, align 8
  %1 = load i32, ptr %0, align 4
  %call = call noundef signext i8 @_ZL9U_FAILURE10UErrorCode(i32 noundef %1)
  %tobool = icmp ne i8 %call, 0
  br i1 %tobool, label %if.then, label %if.end

if.then:                                          ; preds = %entry
  br label %if.end32

if.end:                                           ; preds = %entry
  %call2 = call noundef nonnull align 8 dereferenceable(200) ptr @_ZN6icu_7510UnicodeSet5clearEv(ptr noundef nonnull align 8 dereferenceable(200) %this1)
  store i32 -1, ptr %startHasProperty, align 4
  %2 = load ptr, ptr %inclusions.addr, align 8
  %call3 = call noundef i32 @_ZNK6icu_7510UnicodeSet13getRangeCountEv(ptr noundef nonnull align 8 dereferenceable(200) %2)
  store i32 %call3, ptr %limitRange, align 4
  store i32 0, ptr %j, align 4
  br label %for.cond

for.cond:                                         ; preds = %for.inc20, %if.end
  %3 = load i32, ptr %j, align 4
  %4 = load i32, ptr %limitRange, align 4
  %cmp = icmp slt i32 %3, %4
  br i1 %cmp, label %for.body, label %for.end22

for.body:                                         ; preds = %for.cond
  %5 = load ptr, ptr %inclusions.addr, align 8
  %6 = load i32, ptr %j, align 4
  %call4 = call noundef i32 @_ZNK6icu_7510UnicodeSet13getRangeStartEi(ptr noundef nonnull align 8 dereferenceable(200) %5, i32 noundef %6)
  store i32 %call4, ptr %start, align 4
  %7 = load ptr, ptr %inclusions.addr, align 8
  %8 = load i32, ptr %j, align 4
  %call5 = call noundef i32 @_ZNK6icu_7510UnicodeSet11getRangeEndEi(ptr noundef nonnull align 8 dereferenceable(200) %7, i32 noundef %8)
  store i32 %call5, ptr %end, align 4
  %9 = load i32, ptr %start, align 4
  store i32 %9, ptr %ch, align 4
  br label %for.cond6

for.cond6:                                        ; preds = %for.inc, %for.body
  %10 = load i32, ptr %ch, align 4
  %11 = load i32, ptr %end, align 4
  %cmp7 = icmp sle i32 %10, %11
  br i1 %cmp7, label %for.body8, label %for.end

for.body8:                                        ; preds = %for.cond6
  %12 = load ptr, ptr %filter.addr, align 8
  %13 = load i32, ptr %ch, align 4
  %14 = load ptr, ptr %context.addr, align 8
  %call9 = call noundef signext i8 %12(i32 noundef %13, ptr noundef %14)
  %tobool10 = icmp ne i8 %call9, 0
  br i1 %tobool10, label %if.then11, label %if.else

if.then11:                                        ; preds = %for.body8
  %15 = load i32, ptr %startHasProperty, align 4
  %cmp12 = icmp slt i32 %15, 0
  br i1 %cmp12, label %if.then13, label %if.end14

if.then13:                                        ; preds = %if.then11
  %16 = load i32, ptr %ch, align 4
  store i32 %16, ptr %startHasProperty, align 4
  br label %if.end14

if.end14:                                         ; preds = %if.then13, %if.then11
  br label %if.end19

if.else:                                          ; preds = %for.body8
  %17 = load i32, ptr %startHasProperty, align 4
  %cmp15 = icmp sge i32 %17, 0
  br i1 %cmp15, label %if.then16, label %if.end18

if.then16:                                        ; preds = %if.else
  %18 = load i32, ptr %startHasProperty, align 4
  %19 = load i32, ptr %ch, align 4
  %sub = sub nsw i32 %19, 1
  %call17 = call noundef nonnull align 8 dereferenceable(200) ptr @_ZN6icu_7510UnicodeSet3addEii(ptr noundef nonnull align 8 dereferenceable(200) %this1, i32 noundef %18, i32 noundef %sub)
  store i32 -1, ptr %startHasProperty, align 4
  br label %if.end18

if.end18:                                         ; preds = %if.then16, %if.else
  br label %if.end19

if.end19:                                         ; preds = %if.end18, %if.end14
  br label %for.inc

for.inc:                                          ; preds = %if.end19
  %20 = load i32, ptr %ch, align 4
  %inc = add nsw i32 %20, 1
  store i32 %inc, ptr %ch, align 4
  br label %for.cond6, !llvm.loop !9

for.end:                                          ; preds = %for.cond6
  br label %for.inc20

for.inc20:                                        ; preds = %for.end
  %21 = load i32, ptr %j, align 4
  %inc21 = add nsw i32 %21, 1
  store i32 %inc21, ptr %j, align 4
  br label %for.cond, !llvm.loop !10

for.end22:                                        ; preds = %for.cond
  %22 = load i32, ptr %startHasProperty, align 4
  %cmp23 = icmp sge i32 %22, 0
  br i1 %cmp23, label %if.then24, label %if.end26

if.then24:                                        ; preds = %for.end22
  %23 = load i32, ptr %startHasProperty, align 4
  %call25 = call noundef nonnull align 8 dereferenceable(200) ptr @_ZN6icu_7510UnicodeSet3addEii(ptr noundef nonnull align 8 dereferenceable(200) %this1, i32 noundef %23, i32 noundef 1114111)
  br label %if.end26

if.end26:                                         ; preds = %if.then24, %for.end22
  %call27 = call noundef signext i8 @_ZNK6icu_7510UnicodeSet7isBogusEv(ptr noundef nonnull align 8 dereferenceable(200) %this1)
  %tobool28 = icmp ne i8 %call27, 0
  br i1 %tobool28, label %land.lhs.true, label %if.end32

land.lhs.true:                                    ; preds = %if.end26
  %24 = load ptr, ptr %status.addr, align 8
  %25 = load i32, ptr %24, align 4
  %call29 = call noundef signext i8 @_ZL9U_SUCCESS10UErrorCode(i32 noundef %25)
  %tobool30 = icmp ne i8 %call29, 0
  br i1 %tobool30, label %if.then31, label %if.end32

if.then31:                                        ; preds = %land.lhs.true
  %26 = load ptr, ptr %status.addr, align 8
  store i32 7, ptr %26, align 4
  br label %if.end32

if.end32:                                         ; preds = %if.then31, %land.lhs.true, %if.end26, %if.then
  ret void
}