; Function Attrs: mustprogress uwtable
define void @_ZN6icu_7510UnicodeSet11applyFilterEPFaiPvES1_PKS0_R10UErrorCode(ptr noundef nonnull align 8 dereferenceable(200) %this, ptr nocapture noundef readonly %filter, ptr noundef %context, ptr noundef %inclusions, ptr nocapture noundef nonnull align 4 dereferenceable(4) %status) local_unnamed_addr #1 align 2 {
entry:
  %0 = load i32, ptr %status, align 4
  %cmp.i = icmp slt i32 %0, 1
  br i1 %cmp.i, label %if.end, label %if.end32

if.end:                                           ; preds = %entry
  %call2 = tail call noundef nonnull align 8 dereferenceable(200) ptr @_ZN6icu_7510UnicodeSet5clearEv(ptr noundef nonnull align 8 dereferenceable(200) %this)
  %call3 = tail call noundef i32 @_ZNK6icu_7510UnicodeSet13getRangeCountEv(ptr noundef nonnull align 8 dereferenceable(200) %inclusions)
  %cmp21 = icmp sgt i32 %call3, 0
  br i1 %cmp21, label %for.body, label %if.end26

for.body:                                         ; preds = %if.end, %for.inc20
  %startHasProperty.023 = phi i32 [ %startHasProperty.1.lcssa, %for.inc20 ], [ -1, %if.end ]
  %j.022 = phi i32 [ %inc21, %for.inc20 ], [ 0, %if.end ]
  %call4 = tail call noundef i32 @_ZNK6icu_7510UnicodeSet13getRangeStartEi(ptr noundef nonnull align 8 dereferenceable(200) %inclusions, i32 noundef %j.022)
  %call5 = tail call noundef i32 @_ZNK6icu_7510UnicodeSet11getRangeEndEi(ptr noundef nonnull align 8 dereferenceable(200) %inclusions, i32 noundef %j.022)
  %cmp7.not18 = icmp sgt i32 %call4, %call5
  br i1 %cmp7.not18, label %for.inc20, label %for.body8

for.body8:                                        ; preds = %for.body, %for.inc
  %ch.020 = phi i32 [ %inc, %for.inc ], [ %call4, %for.body ]
  %startHasProperty.119 = phi i32 [ %startHasProperty.2, %for.inc ], [ %startHasProperty.023, %for.body ]
  %call9 = tail call noundef signext i8 %filter(i32 noundef %ch.020, ptr noundef %context)
  %tobool10.not = icmp eq i8 %call9, 0
  br i1 %tobool10.not, label %if.else, label %if.then11

if.then11:                                        ; preds = %for.body8
  %cmp12 = icmp slt i32 %startHasProperty.119, 0
  %spec.select = select i1 %cmp12, i32 %ch.020, i32 %startHasProperty.119
  br label %for.inc

if.else:                                          ; preds = %for.body8
  %cmp15 = icmp sgt i32 %startHasProperty.119, -1
  br i1 %cmp15, label %if.then16, label %for.inc

if.then16:                                        ; preds = %if.else
  %sub = add nsw i32 %ch.020, -1
  %call17 = tail call noundef nonnull align 8 dereferenceable(200) ptr @_ZN6icu_7510UnicodeSet3addEii(ptr noundef nonnull align 8 dereferenceable(200) %this, i32 noundef %startHasProperty.119, i32 noundef %sub)
  br label %for.inc

for.inc:                                          ; preds = %if.then11, %if.then16, %if.else
  %startHasProperty.2 = phi i32 [ -1, %if.then16 ], [ %startHasProperty.119, %if.else ], [ %spec.select, %if.then11 ]
  %inc = add i32 %ch.020, 1
  %exitcond.not = icmp eq i32 %ch.020, %call5
  br i1 %exitcond.not, label %for.inc20, label %for.body8, !llvm.loop !10

for.inc20:                                        ; preds = %for.inc, %for.body
  %startHasProperty.1.lcssa = phi i32 [ %startHasProperty.023, %for.body ], [ %startHasProperty.2, %for.inc ]
  %inc21 = add nuw nsw i32 %j.022, 1
  %exitcond25.not = icmp eq i32 %inc21, %call3
  br i1 %exitcond25.not, label %for.end22, label %for.body, !llvm.loop !11

for.end22:                                        ; preds = %for.inc20
  %cmp23 = icmp sgt i32 %startHasProperty.1.lcssa, -1
  br i1 %cmp23, label %if.then24, label %if.end26

if.then24:                                        ; preds = %for.end22
  %call25 = tail call noundef nonnull align 8 dereferenceable(200) ptr @_ZN6icu_7510UnicodeSet3addEii(ptr noundef nonnull align 8 dereferenceable(200) %this, i32 noundef %startHasProperty.1.lcssa, i32 noundef 1114111)
  br label %if.end26

if.end26:                                         ; preds = %if.end, %if.then24, %for.end22
  %fFlags.i = getelementptr inbounds i8, ptr %this, i64 32
  %1 = load i8, ptr %fFlags.i, align 8
  %2 = and i8 %1, 1
  %tobool28.not = icmp eq i8 %2, 0
  %3 = load i32, ptr %status, align 4
  %cmp.i16 = icmp sgt i32 %3, 0
  %or.cond = select i1 %tobool28.not, i1 true, i1 %cmp.i16
  br i1 %or.cond, label %if.end32, label %if.then31

if.then31:                                        ; preds = %if.end26
  store i32 7, ptr %status, align 4
  br label %if.end32

if.end32:                                         ; preds = %entry, %if.then31, %if.end26
  ret void
}